; Function Attrs: mustprogress nofree nounwind memory(read, argmem: readwrite, inaccessiblemem: none) uwtable
define hidden range(i32 -46, 1) i32 @mbedtls_oid_get_md_alg(ptr noundef readonly captures(address_is_null) %0, ptr noundef writeonly captures(none) %1) local_unnamed_addr #0 {
  %3 = icmp eq ptr %0, null
  br i1 %3, label %_ZL20oid_md_alg_from_asn1PK16mbedtls_asn1_buf.exit.thread, label %.preheader.i

.preheader.i:                                     ; preds = %2
  %4 = getelementptr inbounds nuw i8, ptr %0, i64 16
  %5 = getelementptr inbounds nuw i8, ptr %0, i64 8
  %6 = load i64, ptr %5, align 8, !tbaa !3
  br label %7

7:                                                ; preds = %15, %.preheader.i
  %8 = phi ptr [ @.str.148, %.preheader.i ], [ %17, %15 ]
  %.018.i = phi ptr [ @_ZL10oid_md_alg, %.preheader.i ], [ %16, %15 ]
  %9 = getelementptr inbounds nuw i8, ptr %.018.i, i64 8
  %10 = load i64, ptr %9, align 8, !tbaa !11
  %11 = icmp eq i64 %10, %6
  br i1 %11, label %12, label %15

12:                                               ; preds = %7
  %13 = load ptr, ptr %4, align 8, !tbaa !13
  %bcmp.i = tail call i32 @bcmp(ptr nonnull %8, ptr %13, i64 %6)
  %14 = icmp eq i32 %bcmp.i, 0
  br i1 %14, label %_ZL20oid_md_alg_from_asn1PK16mbedtls_asn1_buf.exit, label %15

15:                                               ; preds = %12, %7
  %16 = getelementptr inbounds nuw i8, ptr %.018.i, i64 40
  %17 = load ptr, ptr %16, align 8, !tbaa !14
  %.not.i = icmp eq ptr %17, null
  br i1 %.not.i, label %_ZL20oid_md_alg_from_asn1PK16mbedtls_asn1_buf.exit.thread, label %7, !llvm.loop !50

_ZL20oid_md_alg_from_asn1PK16mbedtls_asn1_buf.exit: ; preds = %12
  %18 = getelementptr inbounds nuw i8, ptr %.018.i, i64 32
  %19 = load i32, ptr %18, align 8, !tbaa !51
  store i32 %19, ptr %1, align 4, !tbaa !32
  br label %_ZL20oid_md_alg_from_asn1PK16mbedtls_asn1_buf.exit.thread

_ZL20oid_md_alg_from_asn1PK16mbedtls_asn1_buf.exit.thread: ; preds = %15, %2, %_ZL20oid_md_alg_from_asn1PK16mbedtls_asn1_buf.exit
  %.0 = phi i32 [ 0, %_ZL20oid_md_alg_from_asn1PK16mbedtls_asn1_buf.exit ], [ -46, %2 ], [ -46, %15 ]
  ret i32 %.0
}